; Function Attrs: mustprogress uwtable
define dso_local noundef zeroext i1 @_ZNK9SiblingMC21mergeWouldCreateCycleEv(ptr nocapture noundef nonnull readonly align 8 dereferenceable(88) %0) local_unnamed_addr #4 align 2 {
  %2 = getelementptr inbounds i8, ptr %0, i64 40
  %3 = load ptr, ptr %2, align 8
  %4 = getelementptr inbounds i8, ptr %0, i64 48
  %5 = load ptr, ptr %4, align 8
  %6 = load i64, ptr @_ZZN10LogicMTask13incGenerationEvE12s_generation, align 8
  %7 = add i64 %6, 1
  store i64 %7, ptr @_ZZN10LogicMTask13incGenerationEvE12s_generation, align 8
  %8 = tail call noundef zeroext i1 @_ZN10LogicMTask22pathExistsFromInternalEPS_S0_PK11V3GraphEdgem(ptr noundef %3, ptr noundef %5, ptr noundef null, i64 noundef %7)
  br i1 %8, label %15, label %9

9:                                                ; preds = %1
  %10 = load ptr, ptr %4, align 8
  %11 = load ptr, ptr %2, align 8
  %12 = load i64, ptr @_ZZN10LogicMTask13incGenerationEvE12s_generation, align 8
  %13 = add i64 %12, 1
  store i64 %13, ptr @_ZZN10LogicMTask13incGenerationEvE12s_generation, align 8
  %14 = tail call noundef zeroext i1 @_ZN10LogicMTask22pathExistsFromInternalEPS_S0_PK11V3GraphEdgem(ptr noundef %10, ptr noundef %11, ptr noundef null, i64 noundef %13)
  br label %15

15:                                               ; preds = %9, %1
  %16 = phi i1 [ true, %1 ], [ %14, %9 ]
  ret i1 %16
}